target datalayout = "e-m:e-p270:32:32-p271:32:32-p272:64:64-i64:64-i128:128-f80:128-n8:16:32:64-S128"
target triple = "x86_64-pc-linux-gnu"

%"struct.simdjson::internal::decimal" = type { i32, i32, i8, i8, [768 x i8] }

; Function Attrs: mustprogress nounwind uwtable
define dso_local noundef i64 @_ZN8simdjson8internal5roundERNS0_7decimalE(ptr noundef nonnull align 4 dereferenceable(780) %0) #2 {
  %2 = alloca i64, align 8
  %3 = alloca ptr, align 8
  %4 = alloca i32, align 4
  %5 = alloca i64, align 8
  %6 = alloca i32, align 4
  %7 = alloca i8, align 1
  store ptr %0, ptr %3, align 8, !tbaa !44
  %8 = load ptr, ptr %3, align 8, !tbaa !44
  %9 = getelementptr inbounds nuw %"struct.simdjson::internal::decimal", ptr %8, i32 0, i32 0
  %10 = load i32, ptr %9, align 4, !tbaa !26
  %11 = icmp eq i32 %10, 0
  br i1 %11, label %17, label %12

12:                                               ; preds = %1
  %13 = load ptr, ptr %3, align 8, !tbaa !44
  %14 = getelementptr inbounds nuw %"struct.simdjson::internal::decimal", ptr %13, i32 0, i32 1
  %15 = load i32, ptr %14, align 4, !tbaa !28
  %16 = icmp slt i32 %15, 0
  br i1 %16, label %17, label %18

17:                                               ; preds = %12, %1
  store i64 0, ptr %2, align 8
  br label %122

18:                                               ; preds = %12
  %19 = load ptr, ptr %3, align 8, !tbaa !44
  %20 = getelementptr inbounds nuw %"struct.simdjson::internal::decimal", ptr %19, i32 0, i32 1
  %21 = load i32, ptr %20, align 4, !tbaa !28
  %22 = icmp sgt i32 %21, 18
  br i1 %22, label %23, label %24

23:                                               ; preds = %18
  store i64 -1, ptr %2, align 8
  br label %122

24:                                               ; preds = %18
  br label %25

25:                                               ; preds = %24
  call void @llvm.lifetime.start.p0(i64 4, ptr %4) #10
  %26 = load ptr, ptr %3, align 8, !tbaa !44
  %27 = getelementptr inbounds nuw %"struct.simdjson::internal::decimal", ptr %26, i32 0, i32 1
  %28 = load i32, ptr %27, align 4, !tbaa !28
  store i32 %28, ptr %4, align 4, !tbaa !16
  call void @llvm.lifetime.start.p0(i64 8, ptr %5) #10
  store i64 0, ptr %5, align 8, !tbaa !21
  call void @llvm.lifetime.start.p0(i64 4, ptr %6) #10
  store i32 0, ptr %6, align 4, !tbaa !16
  br label %29

29:                                               ; preds = %55, %25
  %30 = load i32, ptr %6, align 4, !tbaa !16
  %31 = load i32, ptr %4, align 4, !tbaa !16
  %32 = icmp ult i32 %30, %31
  br i1 %32, label %34, label %33

33:                                               ; preds = %29
  call void @llvm.lifetime.end.p0(i64 4, ptr %6) #10
  br label %58

34:                                               ; preds = %29
  %35 = load i64, ptr %5, align 8, !tbaa !21
  %36 = mul i64 10, %35
  %37 = load i32, ptr %6, align 4, !tbaa !16
  %38 = load ptr, ptr %3, align 8, !tbaa !44
  %39 = getelementptr inbounds nuw %"struct.simdjson::internal::decimal", ptr %38, i32 0, i32 0
  %40 = load i32, ptr %39, align 4, !tbaa !26
  %41 = icmp ult i32 %37, %40
  br i1 %41, label %42, label %50

42:                                               ; preds = %34
  %43 = load ptr, ptr %3, align 8, !tbaa !44
  %44 = getelementptr inbounds nuw %"struct.simdjson::internal::decimal", ptr %43, i32 0, i32 4
  %45 = load i32, ptr %6, align 4, !tbaa !16
  %46 = zext i32 %45 to i64
  %47 = getelementptr inbounds nuw [768 x i8], ptr %44, i64 0, i64 %46
  %48 = load i8, ptr %47, align 1, !tbaa !15
  %49 = zext i8 %48 to i32
  br label %51

50:                                               ; preds = %34
  br label %51

51:                                               ; preds = %50, %42
  %52 = phi i32 [ %49, %42 ], [ 0, %50 ]
  %53 = sext i32 %52 to i64
  %54 = add i64 %36, %53
  store i64 %54, ptr %5, align 8, !tbaa !21
  br label %55

55:                                               ; preds = %51
  %56 = load i32, ptr %6, align 4, !tbaa !16
  %57 = add i32 %56, 1
  store i32 %57, ptr %6, align 4, !tbaa !16
  br label %29, !llvm.loop !46

58:                                               ; preds = %33
  call void @llvm.lifetime.start.p0(i64 1, ptr %7) #10
  store i8 0, ptr %7, align 1, !tbaa !11
  %59 = load i32, ptr %4, align 4, !tbaa !16
  %60 = load ptr, ptr %3, align 8, !tbaa !44
  %61 = getelementptr inbounds nuw %"struct.simdjson::internal::decimal", ptr %60, i32 0, i32 0
  %62 = load i32, ptr %61, align 4, !tbaa !26
  %63 = icmp ult i32 %59, %62
  br i1 %63, label %64, label %114

64:                                               ; preds = %58
  %65 = load ptr, ptr %3, align 8, !tbaa !44
  %66 = getelementptr inbounds nuw %"struct.simdjson::internal::decimal", ptr %65, i32 0, i32 4
  %67 = load i32, ptr %4, align 4, !tbaa !16
  %68 = zext i32 %67 to i64
  %69 = getelementptr inbounds nuw [768 x i8], ptr %66, i64 0, i64 %68
  %70 = load i8, ptr %69, align 1, !tbaa !15
  %71 = zext i8 %70 to i32
  %72 = icmp sge i32 %71, 5
  %73 = zext i1 %72 to i8
  store i8 %73, ptr %7, align 1, !tbaa !11
  %74 = load ptr, ptr %3, align 8, !tbaa !44
  %75 = getelementptr inbounds nuw %"struct.simdjson::internal::decimal", ptr %74, i32 0, i32 4
  %76 = load i32, ptr %4, align 4, !tbaa !16
  %77 = zext i32 %76 to i64
  %78 = getelementptr inbounds nuw [768 x i8], ptr %75, i64 0, i64 %77
  %79 = load i8, ptr %78, align 1, !tbaa !15
  %80 = zext i8 %79 to i32
  %81 = icmp eq i32 %80, 5
  br i1 %81, label %82, label %113

82:                                               ; preds = %64
  %83 = load i32, ptr %4, align 4, !tbaa !16
  %84 = add i32 %83, 1
  %85 = load ptr, ptr %3, align 8, !tbaa !44
  %86 = getelementptr inbounds nuw %"struct.simdjson::internal::decimal", ptr %85, i32 0, i32 0
  %87 = load i32, ptr %86, align 4, !tbaa !26
  %88 = icmp eq i32 %84, %87
  br i1 %88, label %89, label %113

89:                                               ; preds = %82
  %90 = load ptr, ptr %3, align 8, !tbaa !44
  %91 = getelementptr inbounds nuw %"struct.simdjson::internal::decimal", ptr %90, i32 0, i32 3
  %92 = load i8, ptr %91, align 1, !tbaa !29, !range !13, !noundef !14
  %93 = trunc i8 %92 to i1
  br i1 %93, label %110, label %94

94:                                               ; preds = %89
  %95 = load i32, ptr %4, align 4, !tbaa !16
  %96 = icmp ugt i32 %95, 0
  br i1 %96, label %97, label %108

97:                                               ; preds = %94
  %98 = load ptr, ptr %3, align 8, !tbaa !44
  %99 = getelementptr inbounds nuw %"struct.simdjson::internal::decimal", ptr %98, i32 0, i32 4
  %100 = load i32, ptr %4, align 4, !tbaa !16
  %101 = sub i32 %100, 1
  %102 = zext i32 %101 to i64
  %103 = getelementptr inbounds nuw [768 x i8], ptr %99, i64 0, i64 %102
  %104 = load i8, ptr %103, align 1, !tbaa !15
  %105 = zext i8 %104 to i32
  %106 = and i32 1, %105
  %107 = icmp ne i32 %106, 0
  br label %108

108:                                              ; preds = %97, %94
  %109 = phi i1 [ false, %94 ], [ %107, %97 ]
  br label %110

110:                                              ; preds = %108, %89
  %111 = phi i1 [ true, %89 ], [ %109, %108 ]
  %112 = zext i1 %111 to i8
  store i8 %112, ptr %7, align 1, !tbaa !11
  br label %113

113:                                              ; preds = %110, %82, %64
  br label %114

114:                                              ; preds = %113, %58
  %115 = load i8, ptr %7, align 1, !tbaa !11, !range !13, !noundef !14
  %116 = trunc i8 %115 to i1
  br i1 %116, label %117, label %120

117:                                              ; preds = %114
  %118 = load i64, ptr %5, align 8, !tbaa !21
  %119 = add i64 %118, 1
  store i64 %119, ptr %5, align 8, !tbaa !21
  br label %120

120:                                              ; preds = %117, %114
  %121 = load i64, ptr %5, align 8, !tbaa !21
  store i64 %121, ptr %2, align 8
  call void @llvm.lifetime.end.p0(i64 1, ptr %7) #10
  call void @llvm.lifetime.end.p0(i64 8, ptr %5) #10
  call void @llvm.lifetime.end.p0(i64 4, ptr %4) #10
  br label %122

122:                                              ; preds = %120, %23, %17
  %123 = load i64, ptr %2, align 8
  ret i64 %123
}