; Function Attrs: mustprogress nofree norecurse nosync nounwind willreturn memory(argmem: read) uwtable
define dso_local noundef i64 @_ZN8simdjson8internal5roundERNS0_7decimalE(ptr noundef nonnull readonly align 4 captures(none) dereferenceable(780) %0) local_unnamed_addr #4 {
  %2 = load i32, ptr %0, align 4, !tbaa !13
  %3 = icmp eq i32 %2, 0
  br i1 %3, label %.thread, label %4

4:                                                ; preds = %1
  %5 = getelementptr inbounds nuw i8, ptr %0, i64 4
  %6 = load i32, ptr %5, align 4, !tbaa !16
  %7 = icmp slt i32 %6, 0
  br i1 %7, label %.thread, label %8

8:                                                ; preds = %4
  %9 = icmp samesign ugt i32 %6, 18
  br i1 %9, label %.thread, label %.preheader

.preheader:                                       ; preds = %8
  %.not42 = icmp eq i32 %6, 0
  br i1 %.not42, label %._crit_edge, label %.lr.ph

.lr.ph:                                           ; preds = %.preheader
  %10 = getelementptr inbounds nuw i8, ptr %0, i64 10
  %11 = zext i32 %2 to i64
  %wide.trip.count = zext nneg i32 %6 to i64
  br label %13

._crit_edge:                                      ; preds = %20, %.preheader
  %.028.lcssa = phi i64 [ 0, %.preheader ], [ %22, %20 ]
  %12 = icmp ult i32 %6, %2
  br i1 %12, label %23, label %.thread

13:                                               ; preds = %.lr.ph, %20
  %indvars.iv = phi i64 [ 0, %.lr.ph ], [ %indvars.iv.next, %20 ]
  %.02840 = phi i64 [ 0, %.lr.ph ], [ %22, %20 ]
  %14 = mul i64 %.02840, 10
  %15 = icmp samesign ult i64 %indvars.iv, %11
  br i1 %15, label %16, label %20

16:                                               ; preds = %13
  %17 = getelementptr inbounds nuw [768 x i8], ptr %10, i64 0, i64 %indvars.iv
  %18 = load i8, ptr %17, align 1, !tbaa !4
  %19 = zext i8 %18 to i64
  br label %20

20:                                               ; preds = %13, %16
  %21 = phi i64 [ %19, %16 ], [ 0, %13 ]
  %22 = add i64 %21, %14
  %indvars.iv.next = add nuw nsw i64 %indvars.iv, 1
  %exitcond.not = icmp eq i64 %indvars.iv.next, %wide.trip.count
  br i1 %exitcond.not, label %._crit_edge, label %13, !llvm.loop !34

23:                                               ; preds = %._crit_edge
  %24 = getelementptr inbounds nuw i8, ptr %0, i64 10
  %25 = zext nneg i32 %6 to i64
  %26 = getelementptr inbounds nuw [768 x i8], ptr %24, i64 0, i64 %25
  %27 = load i8, ptr %26, align 1, !tbaa !4
  %.fr = freeze i8 %27
  %28 = icmp eq i8 %.fr, 5
  %29 = add nuw nsw i32 %6, 1
  %30 = icmp eq i32 %29, %2
  %or.cond = select i1 %28, i1 %30, i1 false
  br i1 %or.cond, label %31, label %42

31:                                               ; preds = %23
  %32 = getelementptr inbounds nuw i8, ptr %0, i64 9
  %33 = load i8, ptr %32, align 1, !tbaa !17, !range !35, !noundef !36
  %34 = trunc nuw i8 %33 to i1
  br i1 %34, label %.thread35, label %35

35:                                               ; preds = %31
  br i1 %.not42, label %.thread, label %36

36:                                               ; preds = %35
  %37 = add nsw i32 %6, -1
  %38 = zext nneg i32 %37 to i64
  %39 = getelementptr inbounds nuw [768 x i8], ptr %24, i64 0, i64 %38
  %40 = load i8, ptr %39, align 1, !tbaa !4
  %.fr39 = freeze i8 %40
  %41 = trunc i8 %.fr39 to i1
  br i1 %41, label %.thread35, label %.thread

42:                                               ; preds = %23
  %43 = icmp ugt i8 %.fr, 4
  br i1 %43, label %.thread35, label %.thread

.thread35:                                        ; preds = %31, %36, %42
  %44 = add i64 %.028.lcssa, 1
  br label %.thread

.thread:                                          ; preds = %35, %._crit_edge, %.thread35, %42, %36, %8, %1, %4
  %.029 = phi i64 [ 0, %4 ], [ 0, %1 ], [ -1, %8 ], [ %44, %.thread35 ], [ %.028.lcssa, %42 ], [ %.028.lcssa, %36 ], [ %.028.lcssa, %._crit_edge ], [ %.028.lcssa, %35 ]
  ret i64 %.029
}